; Function Attrs: mustprogress nounwind uwtable
define hidden { i32, ptr } @_ZN4llvh3sys2fs14setPermissionsERKNS_5TwineENS1_5permsE(ptr noundef nonnull align 8 dereferenceable(18) %Path, i32 noundef %Permissions) local_unnamed_addr #0 {
entry:
  %PathStorage = alloca %"class.llvh::SmallString.11", align 8
  %add.ptr.i.i.i.i.i.i = getelementptr inbounds i8, ptr %PathStorage, i64 16
  store ptr %add.ptr.i.i.i.i.i.i, ptr %PathStorage, align 8
  %Size.i.i.i.i.i.i = getelementptr inbounds i8, ptr %PathStorage, i64 8
  store i32 0, ptr %Size.i.i.i.i.i.i, align 8
  %Capacity2.i.i.i.i.i.i = getelementptr inbounds i8, ptr %PathStorage, i64 12
  store i32 128, ptr %Capacity2.i.i.i.i.i.i, align 4
  %call = call { ptr, i64 } @_ZNK4llvh5Twine25toNullTerminatedStringRefERNS_15SmallVectorImplIcEE(ptr noundef nonnull align 8 dereferenceable(18) %Path, ptr noundef nonnull align 8 dereferenceable(16) %PathStorage) #29
  %0 = extractvalue { ptr, i64 } %call, 0
  %call2 = call i32 @chmod(ptr noundef %0, i32 noundef %Permissions) #29
  %tobool.not = icmp eq i32 %call2, 0
  br i1 %tobool.not, label %if.end, label %if.then

if.then:                                          ; preds = %entry
  %call3 = tail call ptr @__errno_location() #30
  %1 = load i32, ptr %call3, align 4
  %call4 = tail call noundef nonnull align 8 dereferenceable(8) ptr @_ZNSt3_V216generic_categoryEv() #30
  br label %cleanup

if.end:                                           ; preds = %entry
  %call.i = tail call noundef nonnull align 8 dereferenceable(8) ptr @_ZNSt3_V215system_categoryEv() #30
  br label %cleanup

cleanup:                                          ; preds = %if.end, %if.then
  %retval.sroa.0.0 = phi i32 [ 0, %if.end ], [ %1, %if.then ]
  %retval.sroa.3.0 = phi ptr [ %call.i, %if.end ], [ %call4, %if.then ]
  %2 = load ptr, ptr %PathStorage, align 8
  %cmp.i.i.i.i = icmp eq ptr %2, %add.ptr.i.i.i.i.i.i
  br i1 %cmp.i.i.i.i, label %_ZN4llvh11SmallStringILj128EED2Ev.exit, label %if.then.i.i.i

if.then.i.i.i:                                    ; preds = %cleanup
  call void @free(ptr noundef %2) #29
  br label %_ZN4llvh11SmallStringILj128EED2Ev.exit

_ZN4llvh11SmallStringILj128EED2Ev.exit:           ; preds = %cleanup, %if.then.i.i.i
  %.fca.0.insert = insertvalue { i32, ptr } poison, i32 %retval.sroa.0.0, 0
  %.fca.1.insert = insertvalue { i32, ptr } %.fca.0.insert, ptr %retval.sroa.3.0, 1
  ret { i32, ptr } %.fca.1.insert
}